; Function Attrs: mustprogress uwtable
define void @_ZN6icu_7713SimpleFactoryC2EPNS_7UObjectERKNS_13UnicodeStringEa(ptr noundef nonnull align 8 dereferenceable(81) initializes((0, 16)) %0, ptr noundef %1, ptr noundef nonnull align 8 dereferenceable(64) %2, i8 noundef signext %3) unnamed_addr #0 align 2 personality ptr @__gxx_personality_v0 {
  store ptr getelementptr inbounds nuw inrange(-16, 48) (i8, ptr @_ZTVN6icu_7713SimpleFactoryE, i64 16), ptr %0, align 8, !tbaa !3
  %5 = getelementptr inbounds nuw i8, ptr %0, i64 8
  store ptr %1, ptr %5, align 8, !tbaa !10
  %6 = getelementptr inbounds nuw i8, ptr %0, i64 16
  invoke void @_ZN6icu_7713UnicodeStringC1ERKS0_(ptr noundef nonnull align 8 dereferenceable(64) %6, ptr noundef nonnull align 8 dereferenceable(64) %2)
          to label %7 unwind label %9

7:                                                ; preds = %4
  %8 = getelementptr inbounds nuw i8, ptr %0, i64 80
  store i8 %3, ptr %8, align 8, !tbaa !18
  ret void

9:                                                ; preds = %4
  %10 = landingpad { ptr, i32 }
          cleanup
  tail call void @_ZN6icu_777UObjectD2Ev(ptr noundef nonnull align 8 dereferenceable(8) %0) #17
  resume { ptr, i32 } %10
}